
RobotRace.elf:     file format elf32-avr

Sections:
Idx Name          Size      VMA       LMA       File off  Algn
  0 .data         0000001a  00800100  0000047e  00000512  2**0
                  CONTENTS, ALLOC, LOAD, DATA
  1 .text         0000047e  00000000  00000000  00000094  2**1
                  CONTENTS, ALLOC, LOAD, READONLY, CODE
  2 .bss          00000001  0080011a  0080011a  0000052c  2**0
                  ALLOC
  3 .comment      00000030  00000000  00000000  0000052c  2**0
                  CONTENTS, READONLY
  4 .note.gnu.avr.deviceinfo 00000040  00000000  00000000  0000055c  2**2
                  CONTENTS, READONLY
  5 .debug_aranges 000000e8  00000000  00000000  0000059c  2**0
                  CONTENTS, READONLY, DEBUGGING
  6 .debug_info   000010e0  00000000  00000000  00000684  2**0
                  CONTENTS, READONLY, DEBUGGING
  7 .debug_abbrev 00000872  00000000  00000000  00001764  2**0
                  CONTENTS, READONLY, DEBUGGING
  8 .debug_line   000007e7  00000000  00000000  00001fd6  2**0
                  CONTENTS, READONLY, DEBUGGING
  9 .debug_frame  00000200  00000000  00000000  000027c0  2**2
                  CONTENTS, READONLY, DEBUGGING
 10 .debug_str    0000068e  00000000  00000000  000029c0  2**0
                  CONTENTS, READONLY, DEBUGGING
 11 .debug_loc    00000521  00000000  00000000  0000304e  2**0
                  CONTENTS, READONLY, DEBUGGING
 12 .debug_ranges 000000d8  00000000  00000000  0000356f  2**0
                  CONTENTS, READONLY, DEBUGGING

Disassembly of section .text:

00000000 <__vectors>:
   0:	0c 94 34 00 	jmp	0x68	; 0x68 <__ctors_end>
   4:	0c 94 51 00 	jmp	0xa2	; 0xa2 <__bad_interrupt>
   8:	0c 94 51 00 	jmp	0xa2	; 0xa2 <__bad_interrupt>
   c:	0c 94 51 00 	jmp	0xa2	; 0xa2 <__bad_interrupt>
  10:	0c 94 51 00 	jmp	0xa2	; 0xa2 <__bad_interrupt>
  14:	0c 94 51 00 	jmp	0xa2	; 0xa2 <__bad_interrupt>
  18:	0c 94 51 00 	jmp	0xa2	; 0xa2 <__bad_interrupt>
  1c:	0c 94 51 00 	jmp	0xa2	; 0xa2 <__bad_interrupt>
  20:	0c 94 51 00 	jmp	0xa2	; 0xa2 <__bad_interrupt>
  24:	0c 94 51 00 	jmp	0xa2	; 0xa2 <__bad_interrupt>
  28:	0c 94 51 00 	jmp	0xa2	; 0xa2 <__bad_interrupt>
  2c:	0c 94 51 00 	jmp	0xa2	; 0xa2 <__bad_interrupt>
  30:	0c 94 51 00 	jmp	0xa2	; 0xa2 <__bad_interrupt>
  34:	0c 94 51 00 	jmp	0xa2	; 0xa2 <__bad_interrupt>
  38:	0c 94 51 00 	jmp	0xa2	; 0xa2 <__bad_interrupt>
  3c:	0c 94 51 00 	jmp	0xa2	; 0xa2 <__bad_interrupt>
  40:	0c 94 51 00 	jmp	0xa2	; 0xa2 <__bad_interrupt>
  44:	0c 94 51 00 	jmp	0xa2	; 0xa2 <__bad_interrupt>
  48:	0c 94 51 00 	jmp	0xa2	; 0xa2 <__bad_interrupt>
  4c:	0c 94 51 00 	jmp	0xa2	; 0xa2 <__bad_interrupt>
  50:	0c 94 51 00 	jmp	0xa2	; 0xa2 <__bad_interrupt>
  54:	0c 94 51 00 	jmp	0xa2	; 0xa2 <__bad_interrupt>
  58:	0c 94 51 00 	jmp	0xa2	; 0xa2 <__bad_interrupt>
  5c:	0c 94 51 00 	jmp	0xa2	; 0xa2 <__bad_interrupt>
  60:	0c 94 51 00 	jmp	0xa2	; 0xa2 <__bad_interrupt>
  64:	0c 94 51 00 	jmp	0xa2	; 0xa2 <__bad_interrupt>

00000068 <__ctors_end>:
  68:	11 24       	eor	r1, r1
  6a:	1f be       	out	0x3f, r1	; 63
  6c:	cf ef       	ldi	r28, 0xFF	; 255
  6e:	d8 e0       	ldi	r29, 0x08	; 8
  70:	de bf       	out	0x3e, r29	; 62
  72:	cd bf       	out	0x3d, r28	; 61

00000074 <__do_copy_data>:
  74:	11 e0       	ldi	r17, 0x01	; 1
  76:	a0 e0       	ldi	r26, 0x00	; 0
  78:	b1 e0       	ldi	r27, 0x01	; 1
  7a:	ee e7       	ldi	r30, 0x7E	; 126
  7c:	f4 e0       	ldi	r31, 0x04	; 4
  7e:	02 c0       	rjmp	.+4      	; 0x84 <__do_copy_data+0x10>
  80:	05 90       	lpm	r0, Z+
  82:	0d 92       	st	X+, r0
  84:	aa 31       	cpi	r26, 0x1A	; 26
  86:	b1 07       	cpc	r27, r17
  88:	d9 f7       	brne	.-10     	; 0x80 <__do_copy_data+0xc>

0000008a <__do_clear_bss>:
  8a:	21 e0       	ldi	r18, 0x01	; 1
  8c:	aa e1       	ldi	r26, 0x1A	; 26
  8e:	b1 e0       	ldi	r27, 0x01	; 1
  90:	01 c0       	rjmp	.+2      	; 0x94 <.do_clear_bss_start>

00000092 <.do_clear_bss_loop>:
  92:	1d 92       	st	X+, r1

00000094 <.do_clear_bss_start>:
  94:	ab 31       	cpi	r26, 0x1B	; 27
  96:	b2 07       	cpc	r27, r18
  98:	e1 f7       	brne	.-8      	; 0x92 <.do_clear_bss_loop>
  9a:	0e 94 87 01 	call	0x30e	; 0x30e <main>
  9e:	0c 94 3d 02 	jmp	0x47a	; 0x47a <_exit>

000000a2 <__bad_interrupt>:
  a2:	0c 94 00 00 	jmp	0	; 0x0 <__vectors>

000000a6 <init_ADC>:
	// Calculate pulse width
	float set = (float)angle / (float)max_angle; // Ratio of degrees
	set = (((float)SERVO_MAX - (float)SERVO_MIN) * set) + (float)SERVO_MIN; // Find the value for PWM
	uint16_t point = (uint16_t)set;
	update_pwm(point);
}
  a6:	ec e7       	ldi	r30, 0x7C	; 124
  a8:	f0 e0       	ldi	r31, 0x00	; 0
  aa:	80 81       	ld	r24, Z
  ac:	80 64       	ori	r24, 0x40	; 64
  ae:	80 83       	st	Z, r24
  b0:	ea e7       	ldi	r30, 0x7A	; 122
  b2:	f0 e0       	ldi	r31, 0x00	; 0
  b4:	80 81       	ld	r24, Z
  b6:	87 60       	ori	r24, 0x07	; 7
  b8:	80 83       	st	Z, r24
  ba:	80 81       	ld	r24, Z
  bc:	80 68       	ori	r24, 0x80	; 128
  be:	80 83       	st	Z, r24
  c0:	08 95       	ret

000000c2 <readADC>:
  c2:	ec e7       	ldi	r30, 0x7C	; 124
  c4:	f0 e0       	ldi	r31, 0x00	; 0
  c6:	90 81       	ld	r25, Z
  c8:	90 7f       	andi	r25, 0xF0	; 240
  ca:	8f 70       	andi	r24, 0x0F	; 15
  cc:	89 2b       	or	r24, r25
  ce:	80 83       	st	Z, r24
  d0:	ea e7       	ldi	r30, 0x7A	; 122
  d2:	f0 e0       	ldi	r31, 0x00	; 0
  d4:	80 81       	ld	r24, Z
  d6:	80 64       	ori	r24, 0x40	; 64
  d8:	80 83       	st	Z, r24
  da:	80 91 7a 00 	lds	r24, 0x007A	; 0x80007a <__TEXT_REGION_LENGTH__+0x7f807a>
  de:	86 fd       	sbrc	r24, 6
  e0:	fc cf       	rjmp	.-8      	; 0xda <readADC+0x18>
  e2:	80 91 78 00 	lds	r24, 0x0078	; 0x800078 <__TEXT_REGION_LENGTH__+0x7f8078>
  e6:	90 91 79 00 	lds	r25, 0x0079	; 0x800079 <__TEXT_REGION_LENGTH__+0x7f8079>
  ea:	08 95       	ret

000000ec <custom_delay_ms>:
  ec:	cf 93       	push	r28
  ee:	df 93       	push	r29
  f0:	00 d0       	rcall	.+0      	; 0xf2 <custom_delay_ms+0x6>
  f2:	cd b7       	in	r28, 0x3d	; 61
  f4:	de b7       	in	r29, 0x3e	; 62
  f6:	40 e0       	ldi	r20, 0x00	; 0
  f8:	50 e0       	ldi	r21, 0x00	; 0
  fa:	11 c0       	rjmp	.+34     	; 0x11e <custom_delay_ms+0x32>
  fc:	1a 82       	std	Y+2, r1	; 0x02
  fe:	19 82       	std	Y+1, r1	; 0x01
 100:	07 c0       	rjmp	.+14     	; 0x110 <custom_delay_ms+0x24>
 102:	00 00       	nop
 104:	29 81       	ldd	r18, Y+1	; 0x01
 106:	3a 81       	ldd	r19, Y+2	; 0x02
 108:	2f 5f       	subi	r18, 0xFF	; 255
 10a:	3f 4f       	sbci	r19, 0xFF	; 255
 10c:	3a 83       	std	Y+2, r19	; 0x02
 10e:	29 83       	std	Y+1, r18	; 0x01
 110:	29 81       	ldd	r18, Y+1	; 0x01
 112:	3a 81       	ldd	r19, Y+2	; 0x02
 114:	22 35       	cpi	r18, 0x52	; 82
 116:	33 40       	sbci	r19, 0x03	; 3
 118:	a0 f3       	brcs	.-24     	; 0x102 <custom_delay_ms+0x16>
 11a:	4f 5f       	subi	r20, 0xFF	; 255
 11c:	5f 4f       	sbci	r21, 0xFF	; 255
 11e:	48 17       	cp	r20, r24
 120:	59 07       	cpc	r21, r25
 122:	60 f3       	brcs	.-40     	; 0xfc <custom_delay_ms+0x10>
 124:	0f 90       	pop	r0
 126:	0f 90       	pop	r0
 128:	df 91       	pop	r29
 12a:	cf 91       	pop	r28
 12c:	08 95       	ret

0000012e <init_USART>:
 12e:	90 93 c5 00 	sts	0x00C5, r25	; 0x8000c5 <__TEXT_REGION_LENGTH__+0x7f80c5>
 132:	80 93 c4 00 	sts	0x00C4, r24	; 0x8000c4 <__TEXT_REGION_LENGTH__+0x7f80c4>
 136:	88 e1       	ldi	r24, 0x18	; 24
 138:	80 93 c1 00 	sts	0x00C1, r24	; 0x8000c1 <__TEXT_REGION_LENGTH__+0x7f80c1>
 13c:	86 e0       	ldi	r24, 0x06	; 6
 13e:	80 93 c2 00 	sts	0x00C2, r24	; 0x8000c2 <__TEXT_REGION_LENGTH__+0x7f80c2>
 142:	08 95       	ret

00000144 <receiveMessage>:
 144:	80 91 c0 00 	lds	r24, 0x00C0	; 0x8000c0 <__TEXT_REGION_LENGTH__+0x7f80c0>
 148:	88 23       	and	r24, r24
 14a:	1c f4       	brge	.+6      	; 0x152 <receiveMessage+0xe>
 14c:	80 91 c6 00 	lds	r24, 0x00C6	; 0x8000c6 <__TEXT_REGION_LENGTH__+0x7f80c6>
 150:	08 95       	ret
 152:	80 e0       	ldi	r24, 0x00	; 0
 154:	08 95       	ret

00000156 <init_driving_PWM>:
 156:	8a b1       	in	r24, 0x0a	; 10
 158:	80 66       	ori	r24, 0x60	; 96
 15a:	8a b9       	out	0x0a, r24	; 10
 15c:	84 b5       	in	r24, 0x24	; 36
 15e:	83 6a       	ori	r24, 0xA3	; 163
 160:	84 bd       	out	0x24, r24	; 36
 162:	85 b5       	in	r24, 0x25	; 37
 164:	83 60       	ori	r24, 0x03	; 3
 166:	85 bd       	out	0x25, r24	; 37
 168:	84 b1       	in	r24, 0x04	; 4
 16a:	8c 60       	ori	r24, 0x0C	; 12
 16c:	84 b9       	out	0x04, r24	; 4
 16e:	08 95       	ret

00000170 <setMotorASpeed>:
 170:	81 11       	cpse	r24, r1
 172:	02 c0       	rjmp	.+4      	; 0x178 <setMotorASpeed+0x8>
 174:	18 bc       	out	0x28, r1	; 40
 176:	08 95       	ret
 178:	88 bd       	out	0x28, r24	; 40
 17a:	08 95       	ret

0000017c <setMotorBSpeed>:
 17c:	81 11       	cpse	r24, r1
 17e:	02 c0       	rjmp	.+4      	; 0x184 <setMotorBSpeed+0x8>
 180:	17 bc       	out	0x27, r1	; 39
 182:	08 95       	ret
 184:	87 bd       	out	0x27, r24	; 39
 186:	08 95       	ret

00000188 <setMotorADirection>:
 188:	81 30       	cpi	r24, 0x01	; 1
 18a:	21 f4       	brne	.+8      	; 0x194 <setMotorADirection+0xc>
 18c:	85 b1       	in	r24, 0x05	; 5
 18e:	84 60       	ori	r24, 0x04	; 4
 190:	85 b9       	out	0x05, r24	; 5
 192:	08 95       	ret
 194:	85 b1       	in	r24, 0x05	; 5
 196:	8b 7f       	andi	r24, 0xFB	; 251
 198:	85 b9       	out	0x05, r24	; 5
 19a:	08 95       	ret

0000019c <setMotorBDirection>:
 19c:	81 30       	cpi	r24, 0x01	; 1
 19e:	21 f4       	brne	.+8      	; 0x1a8 <setMotorBDirection+0xc>
 1a0:	85 b1       	in	r24, 0x05	; 5
 1a2:	88 60       	ori	r24, 0x08	; 8
 1a4:	85 b9       	out	0x05, r24	; 5
 1a6:	08 95       	ret
 1a8:	85 b1       	in	r24, 0x05	; 5
 1aa:	87 7f       	andi	r24, 0xF7	; 247
 1ac:	85 b9       	out	0x05, r24	; 5
 1ae:	08 95       	ret

000001b0 <Forward>:
 1b0:	cf 93       	push	r28
 1b2:	df 93       	push	r29
 1b4:	c8 e1       	ldi	r28, 0x18	; 24
 1b6:	d1 e0       	ldi	r29, 0x01	; 1
 1b8:	88 81       	ld	r24, Y
 1ba:	0e 94 b8 00 	call	0x170	; 0x170 <setMotorASpeed>
 1be:	88 81       	ld	r24, Y
 1c0:	0e 94 be 00 	call	0x17c	; 0x17c <setMotorBSpeed>
 1c4:	df 91       	pop	r29
 1c6:	cf 91       	pop	r28
 1c8:	08 95       	ret

000001ca <turnRight>:
 1ca:	80 91 14 01 	lds	r24, 0x0114	; 0x800114 <turningSpeed>
 1ce:	0e 94 b8 00 	call	0x170	; 0x170 <setMotorASpeed>
 1d2:	80 91 0c 01 	lds	r24, 0x010C	; 0x80010c <regularTruningSpeed>
 1d6:	0e 94 be 00 	call	0x17c	; 0x17c <setMotorBSpeed>
 1da:	08 95       	ret

000001dc <turnRighty>:
 1dc:	80 91 10 01 	lds	r24, 0x0110	; 0x800110 <Turn>
 1e0:	0e 94 b8 00 	call	0x170	; 0x170 <setMotorASpeed>
 1e4:	80 91 0e 01 	lds	r24, 0x010E	; 0x80010e <Drive>
 1e8:	0e 94 be 00 	call	0x17c	; 0x17c <setMotorBSpeed>
 1ec:	08 95       	ret

000001ee <turnHardRight>:
 1ee:	80 91 12 01 	lds	r24, 0x0112	; 0x800112 <hardTurningSPeed>
 1f2:	0e 94 b8 00 	call	0x170	; 0x170 <setMotorASpeed>
 1f6:	80 91 16 01 	lds	r24, 0x0116	; 0x800116 <driveSpeedTruning>
 1fa:	0e 94 be 00 	call	0x17c	; 0x17c <setMotorBSpeed>
 1fe:	08 95       	ret

00000200 <turnLeft>:
 200:	80 91 0c 01 	lds	r24, 0x010C	; 0x80010c <regularTruningSpeed>
 204:	0e 94 b8 00 	call	0x170	; 0x170 <setMotorASpeed>
 208:	80 91 14 01 	lds	r24, 0x0114	; 0x800114 <turningSpeed>
 20c:	0e 94 be 00 	call	0x17c	; 0x17c <setMotorBSpeed>
 210:	08 95       	ret

00000212 <turnLefty>:
 212:	80 91 0e 01 	lds	r24, 0x010E	; 0x80010e <Drive>
 216:	0e 94 b8 00 	call	0x170	; 0x170 <setMotorASpeed>
 21a:	80 91 10 01 	lds	r24, 0x0110	; 0x800110 <Turn>
 21e:	0e 94 be 00 	call	0x17c	; 0x17c <setMotorBSpeed>
 222:	08 95       	ret

00000224 <turnHardLeft>:
 224:	80 91 16 01 	lds	r24, 0x0116	; 0x800116 <driveSpeedTruning>
 228:	0e 94 b8 00 	call	0x170	; 0x170 <setMotorASpeed>
 22c:	80 91 12 01 	lds	r24, 0x0112	; 0x800112 <hardTurningSPeed>
 230:	0e 94 be 00 	call	0x17c	; 0x17c <setMotorBSpeed>
 234:	08 95       	ret

00000236 <move>:
 236:	20 91 06 01 	lds	r18, 0x0106	; 0x800106 <whiteOuterLimit>
 23a:	30 91 07 01 	lds	r19, 0x0107	; 0x800107 <whiteOuterLimit+0x1>
 23e:	82 17       	cp	r24, r18
 240:	93 07       	cpc	r25, r19
 242:	1c f4       	brge	.+6      	; 0x24a <move+0x14>
 244:	0e 94 f7 00 	call	0x1ee	; 0x1ee <turnHardRight>
 248:	08 95       	ret
 24a:	20 91 0a 01 	lds	r18, 0x010A	; 0x80010a <white_limit>
 24e:	30 91 0b 01 	lds	r19, 0x010B	; 0x80010b <white_limit+0x1>
 252:	82 17       	cp	r24, r18
 254:	93 07       	cpc	r25, r19
 256:	1c f4       	brge	.+6      	; 0x25e <move+0x28>
 258:	0e 94 ee 00 	call	0x1dc	; 0x1dc <turnRighty>
 25c:	08 95       	ret
 25e:	20 91 04 01 	lds	r18, 0x0104	; 0x800104 <whiteInnerLimit>
 262:	30 91 05 01 	lds	r19, 0x0105	; 0x800105 <whiteInnerLimit+0x1>
 266:	82 17       	cp	r24, r18
 268:	93 07       	cpc	r25, r19
 26a:	1c f4       	brge	.+6      	; 0x272 <move+0x3c>
 26c:	0e 94 e5 00 	call	0x1ca	; 0x1ca <turnRight>
 270:	08 95       	ret
 272:	20 91 02 01 	lds	r18, 0x0102	; 0x800102 <blackOuterLimit>
 276:	30 91 03 01 	lds	r19, 0x0103	; 0x800103 <blackOuterLimit+0x1>
 27a:	28 17       	cp	r18, r24
 27c:	39 07       	cpc	r19, r25
 27e:	1c f4       	brge	.+6      	; 0x286 <move+0x50>
 280:	0e 94 12 01 	call	0x224	; 0x224 <turnHardLeft>
 284:	08 95       	ret
 286:	20 91 08 01 	lds	r18, 0x0108	; 0x800108 <black_limit>
 28a:	30 91 09 01 	lds	r19, 0x0109	; 0x800109 <black_limit+0x1>
 28e:	28 17       	cp	r18, r24
 290:	39 07       	cpc	r19, r25
 292:	1c f4       	brge	.+6      	; 0x29a <move+0x64>
 294:	0e 94 09 01 	call	0x212	; 0x212 <turnLefty>
 298:	08 95       	ret
 29a:	20 91 00 01 	lds	r18, 0x0100	; 0x800100 <__DATA_REGION_ORIGIN__>
 29e:	30 91 01 01 	lds	r19, 0x0101	; 0x800101 <__DATA_REGION_ORIGIN__+0x1>
 2a2:	28 17       	cp	r18, r24
 2a4:	39 07       	cpc	r19, r25
 2a6:	1c f4       	brge	.+6      	; 0x2ae <move+0x78>
 2a8:	0e 94 00 01 	call	0x200	; 0x200 <turnLeft>
 2ac:	08 95       	ret
 2ae:	0e 94 d8 00 	call	0x1b0	; 0x1b0 <Forward>
 2b2:	08 95       	ret

000002b4 <ultrasonic_init>:
#include "servo.h"
#include "usart.h"

void ultrasonic_init() {
	// Set trigger pin as output and echo pin as input for ultrasonic sensor
	DDRB |= (1 << TRIG_PIN); // Trigger pin as output
 2b4:	84 b1       	in	r24, 0x04	; 4
 2b6:	80 62       	ori	r24, 0x20	; 32
 2b8:	84 b9       	out	0x04, r24	; 4
	DDRB &= ~(1 << ECHO_PIN); // Echo pin as input
 2ba:	84 b1       	in	r24, 0x04	; 4
 2bc:	8f 7e       	andi	r24, 0xEF	; 239
 2be:	84 b9       	out	0x04, r24	; 4
 2c0:	08 95       	ret

000002c2 <timer1_init>:
}
void timer1_init(){
	TCCR1A = 0;
 2c2:	10 92 80 00 	sts	0x0080, r1	; 0x800080 <__TEXT_REGION_LENGTH__+0x7f8080>
	TCCR1B |= (0b010<<CS10);
 2c6:	e1 e8       	ldi	r30, 0x81	; 129
 2c8:	f0 e0       	ldi	r31, 0x00	; 0
 2ca:	80 81       	ld	r24, Z
 2cc:	82 60       	ori	r24, 0x02	; 2
 2ce:	80 83       	st	Z, r24
 2d0:	08 95       	ret

000002d2 <measure_distance>:
	
}
int measure_distance() {
	// Send a 10us pulse to the ultrasonic sensor
	PORTB |= (1 << TRIG_PIN);
 2d2:	85 b1       	in	r24, 0x05	; 5
 2d4:	80 62       	ori	r24, 0x20	; 32
 2d6:	85 b9       	out	0x05, r24	; 5
	#else
		//round up by default
		__ticks_dc = (uint32_t)(ceil(fabs(__tmp)));
	#endif

	__builtin_avr_delay_cycles(__ticks_dc);
 2d8:	83 e0       	ldi	r24, 0x03	; 3
 2da:	8a 95       	dec	r24
 2dc:	f1 f7       	brne	.-4      	; 0x2da <measure_distance+0x8>
 2de:	00 00       	nop
	_delay_us(10);
	PORTB &= ~(1 << TRIG_PIN);
 2e0:	85 b1       	in	r24, 0x05	; 5
 2e2:	8f 7d       	andi	r24, 0xDF	; 223
 2e4:	85 b9       	out	0x05, r24	; 5

	// Measure pulse duration
	while (!(PINB & (1 << ECHO_PIN))); // Wait for echo pin to go high
 2e6:	1c 9b       	sbis	0x03, 4	; 3
 2e8:	fe cf       	rjmp	.-4      	; 0x2e6 <measure_distance+0x14>
	TCNT1 = 0; // Record start time
 2ea:	10 92 85 00 	sts	0x0085, r1	; 0x800085 <__TEXT_REGION_LENGTH__+0x7f8085>
 2ee:	10 92 84 00 	sts	0x0084, r1	; 0x800084 <__TEXT_REGION_LENGTH__+0x7f8084>
	while (PINB & (1 << ECHO_PIN)); // Wait for echo pin to go low
 2f2:	1c 99       	sbic	0x03, 4	; 3
 2f4:	fe cf       	rjmp	.-4      	; 0x2f2 <measure_distance+0x20>
	int time = TCNT1/2;
 2f6:	80 91 84 00 	lds	r24, 0x0084	; 0x800084 <__TEXT_REGION_LENGTH__+0x7f8084>
 2fa:	90 91 85 00 	lds	r25, 0x0085	; 0x800085 <__TEXT_REGION_LENGTH__+0x7f8085>
 2fe:	96 95       	lsr	r25
 300:	87 95       	ror	r24

	// Calculate distance in cm
	int distance = (int)(time / 29);
 302:	6d e1       	ldi	r22, 0x1D	; 29
 304:	70 e0       	ldi	r23, 0x00	; 0
 306:	0e 94 15 02 	call	0x42a	; 0x42a <__divmodhi4>
 30a:	cb 01       	movw	r24, r22

	return distance;
}
 30c:	08 95       	ret

0000030e <main>:
#include "collision.h"

int main(void)
{
    
	init_ADC();
 30e:	0e 94 53 00 	call	0xa6	; 0xa6 <init_ADC>
	init_USART(MYUBRR);
 312:	87 e6       	ldi	r24, 0x67	; 103
 314:	90 e0       	ldi	r25, 0x00	; 0
 316:	0e 94 97 00 	call	0x12e	; 0x12e <init_USART>
 	init_driving_PWM();
 31a:	0e 94 ab 00 	call	0x156	; 0x156 <init_driving_PWM>
	ultrasonic_init();
 31e:	0e 94 5a 01 	call	0x2b4	; 0x2b4 <ultrasonic_init>
	timer1_init();
 322:	0e 94 61 01 	call	0x2c2	; 0x2c2 <timer1_init>
	int16_t i = 0;
	char var;
	int distance;
	
	setMotorADirection(1);
 326:	81 e0       	ldi	r24, 0x01	; 1
 328:	0e 94 c4 00 	call	0x188	; 0x188 <setMotorADirection>
	setMotorBDirection(1);
 32c:	81 e0       	ldi	r24, 0x01	; 1
 32e:	0e 94 ce 00 	call	0x19c	; 0x19c <setMotorBDirection>
	setMotorASpeed(0);
 332:	80 e0       	ldi	r24, 0x00	; 0
 334:	0e 94 b8 00 	call	0x170	; 0x170 <setMotorASpeed>
	setMotorBSpeed(0);
 338:	80 e0       	ldi	r24, 0x00	; 0
 33a:	0e 94 be 00 	call	0x17c	; 0x17c <setMotorBSpeed>
	
	sei();
 33e:	78 94       	sei
	
  while (1) 
    {
		var = receiveMessage();
 340:	0e 94 a2 00 	call	0x144	; 0x144 <receiveMessage>
		if(var == 'A' || var == 'B' || var == 'C'){receivedMessage = var;}
 344:	9f eb       	ldi	r25, 0xBF	; 191
 346:	98 0f       	add	r25, r24
 348:	93 30       	cpi	r25, 0x03	; 3
 34a:	08 f0       	brcs	.+2      	; 0x34e <main+0x40>
 34c:	4a c0       	rjmp	.+148    	; 0x3e2 <main+0xd4>
 34e:	80 93 1a 01 	sts	0x011A, r24	; 0x80011a <__data_end>
 352:	47 c0       	rjmp	.+142    	; 0x3e2 <main+0xd4>
		
		while(receivedMessage == 'A'){
			int sensorLeft = (int)(readADC(SENSOR_LEFT_CHANNEL) - 30);
 354:	80 e0       	ldi	r24, 0x00	; 0
 356:	0e 94 61 00 	call	0xc2	; 0xc2 <readADC>
 35a:	4e 97       	sbiw	r24, 0x1e	; 30
 35c:	6c 01       	movw	r12, r24
			int lineTrackingSensorLeft = (int)readADC(LINE_TRACKING_SENSOR_LEFT_CHANNEL);
 35e:	85 e0       	ldi	r24, 0x05	; 5
 360:	0e 94 61 00 	call	0xc2	; 0xc2 <readADC>
 364:	ec 01       	movw	r28, r24
			int lineTrackingSensorMiddle = (int)readADC(LINE_TRACKING_SENSOR_MIDDLE_CHANNEL);
 366:	82 e0       	ldi	r24, 0x02	; 2
 368:	0e 94 61 00 	call	0xc2	; 0xc2 <readADC>
 36c:	7c 01       	movw	r14, r24
			int lineTrackingSensorRight = (int)(readADC(LINE_TRACKING_SENSOR_RIGHT_CHANNEL) - 30);
 36e:	81 e0       	ldi	r24, 0x01	; 1
 370:	0e 94 61 00 	call	0xc2	; 0xc2 <readADC>
 374:	8c 01       	movw	r16, r24
 376:	0e 51       	subi	r16, 0x1E	; 30
 378:	11 09       	sbc	r17, r1
			int sensorRight = (int)(readADC(SENSOR_RIGHT_CHANNEL) - 20);
 37a:	83 e0       	ldi	r24, 0x03	; 3
 37c:	0e 94 61 00 	call	0xc2	; 0xc2 <readADC>
 380:	44 97       	sbiw	r24, 0x14	; 20
			
			int averageValue = (int)((sensorLeft + lineTrackingSensorLeft + lineTrackingSensorMiddle + lineTrackingSensorRight +sensorRight) / 5);
 382:	96 01       	movw	r18, r12
 384:	2c 0f       	add	r18, r28
 386:	3d 1f       	adc	r19, r29
 388:	e7 01       	movw	r28, r14
 38a:	c2 0f       	add	r28, r18
 38c:	d3 1f       	adc	r29, r19
 38e:	c0 0f       	add	r28, r16
 390:	d1 1f       	adc	r29, r17
 392:	8c 0f       	add	r24, r28
 394:	9d 1f       	adc	r25, r29
 396:	65 e0       	ldi	r22, 0x05	; 5
 398:	70 e0       	ldi	r23, 0x00	; 0
 39a:	0e 94 15 02 	call	0x42a	; 0x42a <__divmodhi4>
 39e:	8b 01       	movw	r16, r22
			
			distance = measure_distance();
 3a0:	0e 94 69 01 	call	0x2d2	; 0x2d2 <measure_distance>
 3a4:	ec 01       	movw	r28, r24
			//transferMessage(averageValue);
			custom_delay_ms(10);
 3a6:	8a e0       	ldi	r24, 0x0A	; 10
 3a8:	90 e0       	ldi	r25, 0x00	; 0
 3aa:	0e 94 76 00 	call	0xec	; 0xec <custom_delay_ms>
			if(distance < 60){
 3ae:	ec 97       	sbiw	r28, 0x3c	; 60
 3b0:	6c f4       	brge	.+26     	; 0x3cc <main+0xbe>
				setMotorBSpeed(0);
 3b2:	80 e0       	ldi	r24, 0x00	; 0
 3b4:	0e 94 be 00 	call	0x17c	; 0x17c <setMotorBSpeed>
				setMotorASpeed(0);
 3b8:	80 e0       	ldi	r24, 0x00	; 0
 3ba:	0e 94 b8 00 	call	0x170	; 0x170 <setMotorASpeed>
				distance = measure_distance();
 3be:	0e 94 69 01 	call	0x2d2	; 0x2d2 <measure_distance>
				custom_delay_ms(10);
 3c2:	8a e0       	ldi	r24, 0x0A	; 10
 3c4:	90 e0       	ldi	r25, 0x00	; 0
 3c6:	0e 94 76 00 	call	0xec	; 0xec <custom_delay_ms>
 3ca:	03 c0       	rjmp	.+6      	; 0x3d2 <main+0xc4>
			}else{
				move(averageValue);
 3cc:	c8 01       	movw	r24, r16
 3ce:	0e 94 1b 01 	call	0x236	; 0x236 <move>
		}
			var = receiveMessage();
 3d2:	0e 94 a2 00 	call	0x144	; 0x144 <receiveMessage>
			if(var == 'B' || var == 'C'){receivedMessage = var;}
 3d6:	9e eb       	ldi	r25, 0xBE	; 190
 3d8:	98 0f       	add	r25, r24
 3da:	92 30       	cpi	r25, 0x02	; 2
 3dc:	10 f4       	brcc	.+4      	; 0x3e2 <main+0xd4>
 3de:	80 93 1a 01 	sts	0x011A, r24	; 0x80011a <__data_end>
  while (1) 
    {
		var = receiveMessage();
		if(var == 'A' || var == 'B' || var == 'C'){receivedMessage = var;}
		
		while(receivedMessage == 'A'){
 3e2:	80 91 1a 01 	lds	r24, 0x011A	; 0x80011a <__data_end>
 3e6:	81 34       	cpi	r24, 0x41	; 65
 3e8:	09 f4       	brne	.+2      	; 0x3ec <main+0xde>
 3ea:	b4 cf       	rjmp	.-152    	; 0x354 <main+0x46>
				move(averageValue);
		}
			var = receiveMessage();
			if(var == 'B' || var == 'C'){receivedMessage = var;}
		}
		setMotorASpeed(0);
 3ec:	80 e0       	ldi	r24, 0x00	; 0
 3ee:	0e 94 b8 00 	call	0x170	; 0x170 <setMotorASpeed>
		setMotorBSpeed(0);
 3f2:	80 e0       	ldi	r24, 0x00	; 0
 3f4:	0e 94 be 00 	call	0x17c	; 0x17c <setMotorBSpeed>
		if(receivedMessage == 'B'){
 3f8:	80 91 1a 01 	lds	r24, 0x011A	; 0x80011a <__data_end>
 3fc:	82 34       	cpi	r24, 0x42	; 66
 3fe:	81 f4       	brne	.+32     	; 0x420 <__EEPROM_REGION_LENGTH__+0x20>
			custom_delay_ms(5000);
 400:	88 e8       	ldi	r24, 0x88	; 136
 402:	93 e1       	ldi	r25, 0x13	; 19
 404:	0e 94 76 00 	call	0xec	; 0xec <custom_delay_ms>
			receivedMessage = 'A';
 408:	81 e4       	ldi	r24, 0x41	; 65
 40a:	80 93 1a 01 	sts	0x011A, r24	; 0x80011a <__data_end>
 40e:	08 c0       	rjmp	.+16     	; 0x420 <__EEPROM_REGION_LENGTH__+0x20>
		}
		while(receivedMessage == 'C'){
			var = receiveMessage();
 410:	0e 94 a2 00 	call	0x144	; 0x144 <receiveMessage>
			if(var == 'A' || var == 'B'){receivedMessage =var;}
 414:	9f eb       	ldi	r25, 0xBF	; 191
 416:	98 0f       	add	r25, r24
 418:	92 30       	cpi	r25, 0x02	; 2
 41a:	10 f4       	brcc	.+4      	; 0x420 <__EEPROM_REGION_LENGTH__+0x20>
 41c:	80 93 1a 01 	sts	0x011A, r24	; 0x80011a <__data_end>
		setMotorBSpeed(0);
		if(receivedMessage == 'B'){
			custom_delay_ms(5000);
			receivedMessage = 'A';
		}
		while(receivedMessage == 'C'){
 420:	80 91 1a 01 	lds	r24, 0x011A	; 0x80011a <__data_end>
 424:	83 34       	cpi	r24, 0x43	; 67
 426:	a1 f3       	breq	.-24     	; 0x410 <__EEPROM_REGION_LENGTH__+0x10>
 428:	8b cf       	rjmp	.-234    	; 0x340 <main+0x32>

0000042a <__divmodhi4>:
 42a:	97 fb       	bst	r25, 7
 42c:	07 2e       	mov	r0, r23
 42e:	16 f4       	brtc	.+4      	; 0x434 <__divmodhi4+0xa>
 430:	00 94       	com	r0
 432:	07 d0       	rcall	.+14     	; 0x442 <__divmodhi4_neg1>
 434:	77 fd       	sbrc	r23, 7
 436:	09 d0       	rcall	.+18     	; 0x44a <__divmodhi4_neg2>
 438:	0e 94 29 02 	call	0x452	; 0x452 <__udivmodhi4>
 43c:	07 fc       	sbrc	r0, 7
 43e:	05 d0       	rcall	.+10     	; 0x44a <__divmodhi4_neg2>
 440:	3e f4       	brtc	.+14     	; 0x450 <__divmodhi4_exit>

00000442 <__divmodhi4_neg1>:
 442:	90 95       	com	r25
 444:	81 95       	neg	r24
 446:	9f 4f       	sbci	r25, 0xFF	; 255
 448:	08 95       	ret

0000044a <__divmodhi4_neg2>:
 44a:	70 95       	com	r23
 44c:	61 95       	neg	r22
 44e:	7f 4f       	sbci	r23, 0xFF	; 255

00000450 <__divmodhi4_exit>:
 450:	08 95       	ret

00000452 <__udivmodhi4>:
 452:	aa 1b       	sub	r26, r26
 454:	bb 1b       	sub	r27, r27
 456:	51 e1       	ldi	r21, 0x11	; 17
 458:	07 c0       	rjmp	.+14     	; 0x468 <__udivmodhi4_ep>

0000045a <__udivmodhi4_loop>:
 45a:	aa 1f       	adc	r26, r26
 45c:	bb 1f       	adc	r27, r27
 45e:	a6 17       	cp	r26, r22
 460:	b7 07       	cpc	r27, r23
 462:	10 f0       	brcs	.+4      	; 0x468 <__udivmodhi4_ep>
 464:	a6 1b       	sub	r26, r22
 466:	b7 0b       	sbc	r27, r23

00000468 <__udivmodhi4_ep>:
 468:	88 1f       	adc	r24, r24
 46a:	99 1f       	adc	r25, r25
 46c:	5a 95       	dec	r21
 46e:	a9 f7       	brne	.-22     	; 0x45a <__udivmodhi4_loop>
 470:	80 95       	com	r24
 472:	90 95       	com	r25
 474:	bc 01       	movw	r22, r24
 476:	cd 01       	movw	r24, r26
 478:	08 95       	ret

0000047a <_exit>:
 47a:	f8 94       	cli

0000047c <__stop_program>:
 47c:	ff cf       	rjmp	.-2      	; 0x47c <__stop_program>
